target datalayout = "e-m:e-p270:32:32-p271:32:32-p272:64:64-i64:64-i128:128-f80:128-n8:16:32:64-S128"
target triple = "x86_64-pc-linux-gnu"

%struct.QualCost = type { double, double }
%struct.nameData = type { [64 x i8] }
%struct.HeapTupleData = type { i32, %struct.ItemPointerData, i32, ptr }
%struct.ItemPointerData = type { %struct.BlockIdData, i16 }
%struct.BlockIdData = type { i16, i16 }
%struct.SupportRequestCost = type { i32, ptr, i32, ptr, double, double }
%struct.FormData_pg_proc = type { i32, %struct.nameData, i32, i32, i32, float, float, i32, i32, i8, i8, i8, i8, i8, i8, i8, i16, i16, i32, %struct.oidvector }
%struct.oidvector = type { i32, i32, i32, i32, i32, i32, [0 x i32] }
%struct.HeapTupleHeaderData = type { %union.anon, %struct.ItemPointerData, i16, i16, i8, [0 x i8] }
%union.anon = type { %struct.HeapTupleFields }
%struct.HeapTupleFields = type { i32, i32, %union.anon.0 }
%union.anon.0 = type { i32 }

@.str.1 = private unnamed_addr constant [10 x i8] c"plancat.c\00", align 1
@.str.12 = private unnamed_addr constant [36 x i8] c"cache lookup failed for function %u\00", align 1
@__func__.add_function_cost = private unnamed_addr constant [18 x i8] c"add_function_cost\00", align 1
@cpu_operator_cost = external global double, align 8

; Function Attrs: inlinehint nounwind uwtable
define internal ptr @DatumGetPointer(i64 noundef %0) #4 {
  %2 = alloca i64, align 8
  store i64 %0, ptr %2, align 8
  %3 = load i64, ptr %2, align 8
  %4 = inttoptr i64 %3 to ptr
  ret ptr %4
}

; Function Attrs: inlinehint nounwind uwtable
define internal i64 @PointerGetDatum(ptr noundef %0) #4 {
  %2 = alloca ptr, align 8
  store ptr %0, ptr %2, align 8
  %3 = load ptr, ptr %2, align 8
  %4 = ptrtoint ptr %3 to i64
  ret i64 %4
}

; Function Attrs: inlinehint nounwind uwtable
define internal ptr @GETSTRUCT(ptr noundef %0) #4 {
  %2 = alloca ptr, align 8
  store ptr %0, ptr %2, align 8
  %3 = load ptr, ptr %2, align 8
  %4 = getelementptr inbounds nuw %struct.HeapTupleData, ptr %3, i32 0, i32 3
  %5 = load ptr, ptr %4, align 8
  %6 = load ptr, ptr %2, align 8
  %7 = getelementptr inbounds nuw %struct.HeapTupleData, ptr %6, i32 0, i32 3
  %8 = load ptr, ptr %7, align 8
  %9 = getelementptr inbounds nuw %struct.HeapTupleHeaderData, ptr %8, i32 0, i32 4
  %10 = load i8, ptr %9, align 2
  %11 = zext i8 %10 to i32
  %12 = sext i32 %11 to i64
  %13 = getelementptr inbounds i8, ptr %5, i64 %12
  ret ptr %13
}

; Function Attrs: inlinehint nounwind uwtable
define internal i64 @ObjectIdGetDatum(i32 noundef %0) #4 {
  %2 = alloca i32, align 4
  store i32 %0, ptr %2, align 4
  %3 = load i32, ptr %2, align 4
  %4 = zext i32 %3 to i64
  ret i64 %4
}

; Function Attrs: nounwind uwtable
define dso_local void @add_function_cost(ptr noundef %0, i32 noundef %1, ptr noundef %2, ptr noundef %3) #0 {
  %5 = alloca ptr, align 8
  %6 = alloca i32, align 4
  %7 = alloca ptr, align 8
  %8 = alloca ptr, align 8
  %9 = alloca ptr, align 8
  %10 = alloca ptr, align 8
  %11 = alloca %struct.SupportRequestCost, align 8
  %12 = alloca ptr, align 8
  %13 = alloca i32, align 4
  store ptr %0, ptr %5, align 8
  store i32 %1, ptr %6, align 4
  store ptr %2, ptr %7, align 8
  store ptr %3, ptr %8, align 8
  call void @llvm.lifetime.start.p0(i64 8, ptr %9) #10
  call void @llvm.lifetime.start.p0(i64 8, ptr %10) #10
  %14 = load i32, ptr %6, align 4
  %15 = call i64 @ObjectIdGetDatum(i32 noundef %14)
  %16 = call ptr @SearchSysCache1(i32 noundef 47, i64 noundef %15)
  store ptr %16, ptr %9, align 8
  %17 = load ptr, ptr %9, align 8
  %18 = icmp ne ptr %17, null
  br i1 %18, label %31, label %19

19:                                               ; preds = %4
  br label %20

20:                                               ; preds = %19
  br i1 true, label %21, label %23

21:                                               ; preds = %20
  %22 = call zeroext i1 @errstart_cold(i32 noundef 21, ptr noundef null) #11
  br i1 %22, label %25, label %28

23:                                               ; preds = %20
  %24 = call zeroext i1 @errstart(i32 noundef 21, ptr noundef null)
  br i1 %24, label %25, label %28

25:                                               ; preds = %23, %21
  %26 = load i32, ptr %6, align 4
  %27 = call i32 (ptr, ...) @errmsg_internal(ptr noundef @.str.12, i32 noundef %26)
  call void @errfinish(ptr noundef @.str.1, i32 noundef 2117, ptr noundef @__func__.add_function_cost)
  br label %28

28:                                               ; preds = %25, %23, %21
  unreachable

29:                                               ; No predecessors!
  br label %30

30:                                               ; preds = %29
  br label %31

31:                                               ; preds = %30, %4
  %32 = load ptr, ptr %9, align 8
  %33 = call ptr @GETSTRUCT(ptr noundef %32)
  store ptr %33, ptr %10, align 8
  %34 = load ptr, ptr %10, align 8
  %35 = getelementptr inbounds nuw %struct.FormData_pg_proc, ptr %34, i32 0, i32 8
  %36 = load i32, ptr %35, align 4
  %37 = icmp ne i32 %36, 0
  br i1 %37, label %38, label %74

38:                                               ; preds = %31
  call void @llvm.lifetime.start.p0(i64 48, ptr %11) #10
  call void @llvm.lifetime.start.p0(i64 8, ptr %12) #10
  %39 = getelementptr inbounds nuw %struct.SupportRequestCost, ptr %11, i32 0, i32 0
  store i32 458, ptr %39, align 8
  %40 = load ptr, ptr %5, align 8
  %41 = getelementptr inbounds nuw %struct.SupportRequestCost, ptr %11, i32 0, i32 1
  store ptr %40, ptr %41, align 8
  %42 = load i32, ptr %6, align 4
  %43 = getelementptr inbounds nuw %struct.SupportRequestCost, ptr %11, i32 0, i32 2
  store i32 %42, ptr %43, align 8
  %44 = load ptr, ptr %7, align 8
  %45 = getelementptr inbounds nuw %struct.SupportRequestCost, ptr %11, i32 0, i32 3
  store ptr %44, ptr %45, align 8
  %46 = getelementptr inbounds nuw %struct.SupportRequestCost, ptr %11, i32 0, i32 4
  store double 0.000000e+00, ptr %46, align 8
  %47 = getelementptr inbounds nuw %struct.SupportRequestCost, ptr %11, i32 0, i32 5
  store double 0.000000e+00, ptr %47, align 8
  %48 = load ptr, ptr %10, align 8
  %49 = getelementptr inbounds nuw %struct.FormData_pg_proc, ptr %48, i32 0, i32 8
  %50 = load i32, ptr %49, align 4
  %51 = call i64 @PointerGetDatum(ptr noundef %11)
  %52 = call i64 @OidFunctionCall1Coll(i32 noundef %50, i32 noundef 0, i64 noundef %51)
  %53 = call ptr @DatumGetPointer(i64 noundef %52)
  store ptr %53, ptr %12, align 8
  %54 = load ptr, ptr %12, align 8
  %55 = icmp eq ptr %54, %11
  br i1 %55, label %56, label %70

56:                                               ; preds = %38
  %57 = getelementptr inbounds nuw %struct.SupportRequestCost, ptr %11, i32 0, i32 4
  %58 = load double, ptr %57, align 8
  %59 = load ptr, ptr %8, align 8
  %60 = getelementptr inbounds nuw %struct.QualCost, ptr %59, i32 0, i32 0
  %61 = load double, ptr %60, align 8
  %62 = fadd double %61, %58
  store double %62, ptr %60, align 8
  %63 = getelementptr inbounds nuw %struct.SupportRequestCost, ptr %11, i32 0, i32 5
  %64 = load double, ptr %63, align 8
  %65 = load ptr, ptr %8, align 8
  %66 = getelementptr inbounds nuw %struct.QualCost, ptr %65, i32 0, i32 1
  %67 = load double, ptr %66, align 8
  %68 = fadd double %67, %64
  store double %68, ptr %66, align 8
  %69 = load ptr, ptr %9, align 8
  call void @ReleaseSysCache(ptr noundef %69)
  store i32 1, ptr %13, align 4
  br label %71

70:                                               ; preds = %38
  store i32 0, ptr %13, align 4
  br label %71

71:                                               ; preds = %70, %56
  call void @llvm.lifetime.end.p0(i64 8, ptr %12) #10
  call void @llvm.lifetime.end.p0(i64 48, ptr %11) #10
  %72 = load i32, ptr %13, align 4
  switch i32 %72, label %85 [
    i32 0, label %73
  ]

73:                                               ; preds = %71
  br label %74

74:                                               ; preds = %73, %31
  %75 = load ptr, ptr %10, align 8
  %76 = getelementptr inbounds nuw %struct.FormData_pg_proc, ptr %75, i32 0, i32 5
  %77 = load float, ptr %76, align 4
  %78 = fpext float %77 to double
  %79 = load double, ptr @cpu_operator_cost, align 8
  %80 = load ptr, ptr %8, align 8
  %81 = getelementptr inbounds nuw %struct.QualCost, ptr %80, i32 0, i32 1
  %82 = load double, ptr %81, align 8
  %83 = call double @llvm.fmuladd.f64(double %78, double %79, double %82)
  store double %83, ptr %81, align 8
  %84 = load ptr, ptr %9, align 8
  call void @ReleaseSysCache(ptr noundef %84)
  store i32 0, ptr %13, align 4
  br label %85

85:                                               ; preds = %74, %71
  call void @llvm.lifetime.end.p0(i64 8, ptr %10) #10
  call void @llvm.lifetime.end.p0(i64 8, ptr %9) #10
  %86 = load i32, ptr %13, align 4
  switch i32 %86, label %88 [
    i32 0, label %87
    i32 1, label %87
  ]

87:                                               ; preds = %85, %85
  ret void

88:                                               ; preds = %85
  unreachable
}