; Function Attrs: nounwind uwtable
define dso_local void @add_function_cost(ptr noundef %0, i32 noundef %1, ptr noundef %2, ptr noundef captures(none) %3) local_unnamed_addr #0 {
  %5 = alloca %struct.SupportRequestCost, align 8
  %6 = zext i32 %1 to i64
  %7 = tail call ptr @SearchSysCache1(i32 noundef 47, i64 noundef %6) #10
  %.not = icmp eq ptr %7, null
  br i1 %.not, label %8, label %11

8:                                                ; preds = %4
  %9 = tail call zeroext i1 @errstart_cold(i32 noundef 21, ptr noundef null) #11
  tail call void @llvm.assume(i1 %9)
  %10 = tail call i32 (ptr, ...) @errmsg_internal(ptr noundef nonnull @.str.12, i32 noundef %1) #10
  tail call void @errfinish(ptr noundef nonnull @.str.1, i32 noundef 2117, ptr noundef nonnull @__func__.add_function_cost) #10
  unreachable

11:                                               ; preds = %4
  %12 = getelementptr i8, ptr %7, i64 16
  %.val = load ptr, ptr %12, align 8
  %13 = getelementptr inbounds nuw i8, ptr %.val, i64 22
  %14 = load i8, ptr %13, align 2
  %15 = zext i8 %14 to i64
  %16 = getelementptr inbounds nuw i8, ptr %.val, i64 %15
  %17 = getelementptr inbounds nuw i8, ptr %16, i64 92
  %18 = load i32, ptr %17, align 4
  %.not17 = icmp eq i32 %18, 0
  br i1 %.not17, label %36, label %19

19:                                               ; preds = %11
  call void @llvm.lifetime.start.p0(i64 48, ptr nonnull %5) #10
  store i32 458, ptr %5, align 8
  %20 = getelementptr inbounds nuw i8, ptr %5, i64 8
  store ptr %0, ptr %20, align 8
  %21 = getelementptr inbounds nuw i8, ptr %5, i64 16
  store i32 %1, ptr %21, align 8
  %22 = getelementptr inbounds nuw i8, ptr %5, i64 24
  store ptr %2, ptr %22, align 8
  %23 = getelementptr inbounds nuw i8, ptr %5, i64 32
  %24 = ptrtoint ptr %5 to i64
  call void @llvm.memset.p0.i64(ptr noundef nonnull align 8 dereferenceable(16) %23, i8 0, i64 16, i1 false)
  %25 = call i64 @OidFunctionCall1Coll(i32 noundef %18, i32 noundef 0, i64 noundef %24) #10
  %26 = inttoptr i64 %25 to ptr
  %.not18 = icmp eq ptr %5, %26
  br i1 %.not18, label %27, label %.critedge

27:                                               ; preds = %19
  %28 = getelementptr inbounds nuw i8, ptr %5, i64 40
  %29 = load double, ptr %23, align 8
  %30 = load double, ptr %3, align 8
  %31 = fadd double %29, %30
  store double %31, ptr %3, align 8
  %32 = load double, ptr %28, align 8
  %33 = getelementptr inbounds nuw i8, ptr %3, i64 8
  %34 = load double, ptr %33, align 8
  %35 = fadd double %32, %34
  store double %35, ptr %33, align 8
  call void @ReleaseSysCache(ptr noundef nonnull %7) #10
  call void @llvm.lifetime.end.p0(i64 48, ptr nonnull %5) #10
  br label %44

.critedge:                                        ; preds = %19
  call void @llvm.lifetime.end.p0(i64 48, ptr nonnull %5) #10
  br label %36

36:                                               ; preds = %.critedge, %11
  %37 = getelementptr inbounds nuw i8, ptr %16, i64 80
  %38 = load float, ptr %37, align 4
  %39 = fpext float %38 to double
  %40 = load double, ptr @cpu_operator_cost, align 8
  %41 = getelementptr inbounds nuw i8, ptr %3, i64 8
  %42 = load double, ptr %41, align 8
  %43 = call double @llvm.fmuladd.f64(double %39, double %40, double %42)
  store double %43, ptr %41, align 8
  call void @ReleaseSysCache(ptr noundef nonnull %7) #10
  br label %44

44:                                               ; preds = %27, %36
  ret void
}